target datalayout = "e-m:e-p270:32:32-p271:32:32-p272:64:64-i64:64-i128:128-f80:128-n8:16:32:64-S128"
target triple = "x86_64-pc-linux-gnu"

%"class.__gnu_cxx::__normal_iterator" = type { ptr }
%"class.duckdb::TableFilter" = type <{ ptr, i8, [7 x i8] }>
%"class.duckdb::ConjunctionFilter" = type { %"class.duckdb::TableFilter.base", %"class.duckdb::vector.178" }
%"class.duckdb::TableFilter.base" = type <{ ptr, i8 }>
%"class.duckdb::vector.178" = type { %"class.std::vector.179" }
%"class.std::vector.179" = type { %"struct.std::_Vector_base.180" }
%"struct.std::_Vector_base.180" = type { %"struct.std::_Vector_base<duckdb::unique_ptr<duckdb::TableFilter>, std::allocator<duckdb::unique_ptr<duckdb::TableFilter>>>::_Vector_impl" }
%"struct.std::_Vector_base<duckdb::unique_ptr<duckdb::TableFilter>, std::allocator<duckdb::unique_ptr<duckdb::TableFilter>>>::_Vector_impl" = type { %"struct.std::_Vector_base<duckdb::unique_ptr<duckdb::TableFilter>, std::allocator<duckdb::unique_ptr<duckdb::TableFilter>>>::_Vector_impl_data" }
%"struct.std::_Vector_base<duckdb::unique_ptr<duckdb::TableFilter>, std::allocator<duckdb::unique_ptr<duckdb::TableFilter>>>::_Vector_impl_data" = type { ptr, ptr, ptr }
%"class.duckdb::unique_ptr.184" = type { %"class.std::unique_ptr.185" }
%"class.std::unique_ptr.185" = type { %"struct.std::__uniq_ptr_data.186" }
%"struct.std::__uniq_ptr_data.186" = type { %"class.std::__uniq_ptr_impl.187" }
%"class.std::__uniq_ptr_impl.187" = type { %"class.std::tuple.188" }
%"class.std::tuple.188" = type { %"struct.std::_Tuple_impl.189" }
%"struct.std::_Tuple_impl.189" = type { %"struct.std::_Head_base.192" }
%"struct.std::_Head_base.192" = type { ptr }

; Function Attrs: mustprogress nounwind uwtable
define linkonce_odr noundef nonnull align 8 dereferenceable(8) ptr @_ZNK9__gnu_cxx17__normal_iteratorIPKN6duckdb10unique_ptrINS1_11TableFilterESt14default_deleteIS3_ELb1EEESt6vectorIS6_SaIS6_EEE4baseEv(ptr noundef nonnull align 8 dereferenceable(8) %0) #4 comdat align 2 {
  %2 = alloca ptr, align 8
  store ptr %0, ptr %2, align 8, !tbaa !363
  %3 = load ptr, ptr %2, align 8
  %4 = getelementptr inbounds nuw %"class.__gnu_cxx::__normal_iterator", ptr %3, i32 0, i32 0
  ret ptr %4
}

; Function Attrs: mustprogress nounwind uwtable
define linkonce_odr void @_ZN9__gnu_cxx17__normal_iteratorIPKN6duckdb10unique_ptrINS1_11TableFilterESt14default_deleteIS3_ELb1EEESt6vectorIS6_SaIS6_EEEC2ERKS8_(ptr noundef nonnull align 8 dereferenceable(8) %0, ptr noundef nonnull align 8 dereferenceable(8) %1) unnamed_addr #4 comdat align 2 {
  %3 = alloca ptr, align 8
  %4 = alloca ptr, align 8
  store ptr %0, ptr %3, align 8, !tbaa !363
  store ptr %1, ptr %4, align 8, !tbaa !763
  %5 = load ptr, ptr %3, align 8
  %6 = getelementptr inbounds nuw %"class.__gnu_cxx::__normal_iterator", ptr %5, i32 0, i32 0
  %7 = load ptr, ptr %4, align 8, !tbaa !763
  %8 = load ptr, ptr %7, align 8, !tbaa !357
  store ptr %8, ptr %6, align 8, !tbaa !365
  ret void
}

; Function Attrs: mustprogress nounwind uwtable
define linkonce_odr noundef nonnull align 8 dereferenceable(8) ptr @_ZN9__gnu_cxx17__normal_iteratorIPKN6duckdb10unique_ptrINS1_11TableFilterESt14default_deleteIS3_ELb1EEESt6vectorIS6_SaIS6_EEEppEv(ptr noundef nonnull align 8 dereferenceable(8) %0) #4 comdat align 2 {
  %2 = alloca ptr, align 8
  store ptr %0, ptr %2, align 8, !tbaa !363
  %3 = load ptr, ptr %2, align 8
  %4 = getelementptr inbounds nuw %"class.__gnu_cxx::__normal_iterator", ptr %3, i32 0, i32 0
  %5 = load ptr, ptr %4, align 8, !tbaa !365
  %6 = getelementptr inbounds nuw %"class.duckdb::unique_ptr.184", ptr %5, i32 1
  store ptr %6, ptr %4, align 8, !tbaa !365
  ret ptr %3
}

; Function Attrs: mustprogress nounwind uwtable
define linkonce_odr noundef nonnull align 8 dereferenceable(8) ptr @_ZNK9__gnu_cxx17__normal_iteratorIPKN6duckdb10unique_ptrINS1_11TableFilterESt14default_deleteIS3_ELb1EEESt6vectorIS6_SaIS6_EEEdeEv(ptr noundef nonnull align 8 dereferenceable(8) %0) #4 comdat align 2 {
  %2 = alloca ptr, align 8
  store ptr %0, ptr %2, align 8, !tbaa !363
  %3 = load ptr, ptr %2, align 8
  %4 = getelementptr inbounds nuw %"class.__gnu_cxx::__normal_iterator", ptr %3, i32 0, i32 0
  %5 = load ptr, ptr %4, align 8, !tbaa !365
  ret ptr %5
}

; Function Attrs: inlinehint mustprogress nounwind uwtable
define linkonce_odr noundef zeroext i1 @_ZN9__gnu_cxxneIPKN6duckdb10unique_ptrINS1_11TableFilterESt14default_deleteIS3_ELb1EEESt6vectorIS6_SaIS6_EEEEbRKNS_17__normal_iteratorIT_T0_EESH_(ptr noundef nonnull align 8 dereferenceable(8) %0, ptr noundef nonnull align 8 dereferenceable(8) %1) #5 comdat {
  %3 = alloca ptr, align 8
  %4 = alloca ptr, align 8
  store ptr %0, ptr %3, align 8, !tbaa !363
  store ptr %1, ptr %4, align 8, !tbaa !363
  %5 = load ptr, ptr %3, align 8, !tbaa !363
  %6 = call noundef nonnull align 8 dereferenceable(8) ptr @_ZNK9__gnu_cxx17__normal_iteratorIPKN6duckdb10unique_ptrINS1_11TableFilterESt14default_deleteIS3_ELb1EEESt6vectorIS6_SaIS6_EEE4baseEv(ptr noundef nonnull align 8 dereferenceable(8) %5) #3
  %7 = load ptr, ptr %6, align 8, !tbaa !357
  %8 = load ptr, ptr %4, align 8, !tbaa !363
  %9 = call noundef nonnull align 8 dereferenceable(8) ptr @_ZNK9__gnu_cxx17__normal_iteratorIPKN6duckdb10unique_ptrINS1_11TableFilterESt14default_deleteIS3_ELb1EEESt6vectorIS6_SaIS6_EEE4baseEv(ptr noundef nonnull align 8 dereferenceable(8) %8) #3
  %10 = load ptr, ptr %9, align 8, !tbaa !357
  %11 = icmp ne ptr %7, %10
  ret i1 %11
}

; Function Attrs: mustprogress nounwind uwtable
define linkonce_odr ptr @_ZNKSt6vectorIN6duckdb10unique_ptrINS0_11TableFilterESt14default_deleteIS2_ELb1EEESaIS5_EE3endEv(ptr noundef nonnull align 8 dereferenceable(24) %0) #4 comdat align 2 {
  %2 = alloca %"class.__gnu_cxx::__normal_iterator", align 8
  %3 = alloca ptr, align 8
  store ptr %0, ptr %3, align 8, !tbaa !361
  %4 = load ptr, ptr %3, align 8
  %5 = getelementptr inbounds nuw %"struct.std::_Vector_base.180", ptr %4, i32 0, i32 0
  %6 = getelementptr inbounds nuw %"struct.std::_Vector_base<duckdb::unique_ptr<duckdb::TableFilter>, std::allocator<duckdb::unique_ptr<duckdb::TableFilter>>>::_Vector_impl_data", ptr %5, i32 0, i32 1
  call void @_ZN9__gnu_cxx17__normal_iteratorIPKN6duckdb10unique_ptrINS1_11TableFilterESt14default_deleteIS3_ELb1EEESt6vectorIS6_SaIS6_EEEC2ERKS8_(ptr noundef nonnull align 8 dereferenceable(8) %2, ptr noundef nonnull align 8 dereferenceable(8) %6) #3
  %7 = getelementptr inbounds nuw %"class.__gnu_cxx::__normal_iterator", ptr %2, i32 0, i32 0
  %8 = load ptr, ptr %7, align 8
  ret ptr %8
}

; Function Attrs: mustprogress nounwind uwtable
define linkonce_odr ptr @_ZNKSt6vectorIN6duckdb10unique_ptrINS0_11TableFilterESt14default_deleteIS2_ELb1EEESaIS5_EE5beginEv(ptr noundef nonnull align 8 dereferenceable(24) %0) #4 comdat align 2 {
  %2 = alloca %"class.__gnu_cxx::__normal_iterator", align 8
  %3 = alloca ptr, align 8
  store ptr %0, ptr %3, align 8, !tbaa !361
  %4 = load ptr, ptr %3, align 8
  %5 = getelementptr inbounds nuw %"struct.std::_Vector_base.180", ptr %4, i32 0, i32 0
  %6 = getelementptr inbounds nuw %"struct.std::_Vector_base<duckdb::unique_ptr<duckdb::TableFilter>, std::allocator<duckdb::unique_ptr<duckdb::TableFilter>>>::_Vector_impl_data", ptr %5, i32 0, i32 0
  call void @_ZN9__gnu_cxx17__normal_iteratorIPKN6duckdb10unique_ptrINS1_11TableFilterESt14default_deleteIS3_ELb1EEESt6vectorIS6_SaIS6_EEEC2ERKS8_(ptr noundef nonnull align 8 dereferenceable(8) %2, ptr noundef nonnull align 8 dereferenceable(8) %6) #3
  %7 = getelementptr inbounds nuw %"class.__gnu_cxx::__normal_iterator", ptr %2, i32 0, i32 0
  %8 = load ptr, ptr %7, align 8
  ret ptr %8
}

; Function Attrs: mustprogress uwtable
define noundef zeroext i1 @_ZN6duckdb24DictionarySupportsFilterERKNS_11TableFilterE(ptr noundef nonnull align 8 dereferenceable(9) %0) #6 {
  %2 = alloca i1, align 1
  %3 = alloca ptr, align 8
  %4 = alloca ptr, align 8
  %5 = alloca ptr, align 8
  %6 = alloca %"class.__gnu_cxx::__normal_iterator", align 8
  %7 = alloca %"class.__gnu_cxx::__normal_iterator", align 8
  %8 = alloca i32, align 4
  %9 = alloca ptr, align 8
  %10 = alloca ptr, align 8
  %11 = alloca ptr, align 8
  %12 = alloca %"class.__gnu_cxx::__normal_iterator", align 8
  %13 = alloca %"class.__gnu_cxx::__normal_iterator", align 8
  %14 = alloca ptr, align 8
  store ptr %0, ptr %3, align 8, !tbaa !332
  %15 = load ptr, ptr %3, align 8, !tbaa !332
  %16 = getelementptr inbounds nuw %"class.duckdb::TableFilter", ptr %15, i32 0, i32 1
  %17 = load i8, ptr %16, align 8, !tbaa !350
  switch i8 %17, label %80 [
    i8 3, label %18
    i8 4, label %48
    i8 0, label %78
    i8 2, label %78
    i8 1, label %79
    i8 8, label %79
    i8 6, label %79
    i8 5, label %79
  ]

18:                                               ; preds = %1
  call void @llvm.lifetime.start.p0(i64 8, ptr %4) #3
  %19 = load ptr, ptr %3, align 8, !tbaa !332
  %20 = call noundef nonnull align 8 dereferenceable(40) ptr @_ZNK6duckdb11TableFilter4CastINS_19ConjunctionOrFilterEEERKT_v(ptr noundef nonnull align 8 dereferenceable(9) %19)
  store ptr %20, ptr %4, align 8, !tbaa !353
  call void @llvm.lifetime.start.p0(i64 8, ptr %5) #3
  %21 = load ptr, ptr %4, align 8, !tbaa !353
  %22 = getelementptr inbounds nuw %"class.duckdb::ConjunctionFilter", ptr %21, i32 0, i32 1
  store ptr %22, ptr %5, align 8, !tbaa !355
  call void @llvm.lifetime.start.p0(i64 8, ptr %6) #3
  %23 = load ptr, ptr %5, align 8, !tbaa !355
  %24 = call ptr @_ZNKSt6vectorIN6duckdb10unique_ptrINS0_11TableFilterESt14default_deleteIS2_ELb1EEESaIS5_EE5beginEv(ptr noundef nonnull align 8 dereferenceable(24) %23) #3
  %25 = getelementptr inbounds nuw %"class.__gnu_cxx::__normal_iterator", ptr %6, i32 0, i32 0
  store ptr %24, ptr %25, align 8
  call void @llvm.lifetime.start.p0(i64 8, ptr %7) #3
  %26 = load ptr, ptr %5, align 8, !tbaa !355
  %27 = call ptr @_ZNKSt6vectorIN6duckdb10unique_ptrINS0_11TableFilterESt14default_deleteIS2_ELb1EEESaIS5_EE3endEv(ptr noundef nonnull align 8 dereferenceable(24) %26) #3
  %28 = getelementptr inbounds nuw %"class.__gnu_cxx::__normal_iterator", ptr %7, i32 0, i32 0
  store ptr %27, ptr %28, align 8
  br label %29

29:                                               ; preds = %42, %18
  %30 = call noundef zeroext i1 @_ZN9__gnu_cxxneIPKN6duckdb10unique_ptrINS1_11TableFilterESt14default_deleteIS3_ELb1EEESt6vectorIS6_SaIS6_EEEEbRKNS_17__normal_iteratorIT_T0_EESH_(ptr noundef nonnull align 8 dereferenceable(8) %6, ptr noundef nonnull align 8 dereferenceable(8) %7) #3
  br i1 %30, label %32, label %31

31:                                               ; preds = %29
  store i32 3, ptr %8, align 4
  br label %44

32:                                               ; preds = %29
  call void @llvm.lifetime.start.p0(i64 8, ptr %9) #3
  %33 = call noundef nonnull align 8 dereferenceable(8) ptr @_ZNK9__gnu_cxx17__normal_iteratorIPKN6duckdb10unique_ptrINS1_11TableFilterESt14default_deleteIS3_ELb1EEESt6vectorIS6_SaIS6_EEEdeEv(ptr noundef nonnull align 8 dereferenceable(8) %6) #3
  store ptr %33, ptr %9, align 8, !tbaa !357
  %34 = load ptr, ptr %9, align 8, !tbaa !357
  %35 = call noundef nonnull align 8 dereferenceable(9) ptr @_ZNK6duckdb10unique_ptrINS_11TableFilterESt14default_deleteIS1_ELb1EEdeEv(ptr noundef nonnull align 8 dereferenceable(8) %34)
  %36 = call noundef zeroext i1 @_ZN6duckdb24DictionarySupportsFilterERKNS_11TableFilterE(ptr noundef nonnull align 8 dereferenceable(9) %35)
  br i1 %36, label %38, label %37

37:                                               ; preds = %32
  store i1 false, ptr %2, align 1
  store i32 1, ptr %8, align 4
  br label %39

38:                                               ; preds = %32
  store i32 0, ptr %8, align 4
  br label %39

39:                                               ; preds = %38, %37
  call void @llvm.lifetime.end.p0(i64 8, ptr %9) #3
  %40 = load i32, ptr %8, align 4
  switch i32 %40, label %44 [
    i32 0, label %41
  ]

41:                                               ; preds = %39
  br label %42

42:                                               ; preds = %41
  %43 = call noundef nonnull align 8 dereferenceable(8) ptr @_ZN9__gnu_cxx17__normal_iteratorIPKN6duckdb10unique_ptrINS1_11TableFilterESt14default_deleteIS3_ELb1EEESt6vectorIS6_SaIS6_EEEppEv(ptr noundef nonnull align 8 dereferenceable(8) %6) #3
  br label %29

44:                                               ; preds = %39, %31
  call void @llvm.lifetime.end.p0(i64 8, ptr %7) #3
  call void @llvm.lifetime.end.p0(i64 8, ptr %6) #3
  call void @llvm.lifetime.end.p0(i64 8, ptr %5) #3
  %45 = load i32, ptr %8, align 4
  switch i32 %45, label %47 [
    i32 3, label %46
  ]

46:                                               ; preds = %44
  store i1 true, ptr %2, align 1
  store i32 1, ptr %8, align 4
  br label %47

47:                                               ; preds = %46, %44
  call void @llvm.lifetime.end.p0(i64 8, ptr %4) #3
  br label %81

48:                                               ; preds = %1
  call void @llvm.lifetime.start.p0(i64 8, ptr %10) #3
  %49 = load ptr, ptr %3, align 8, !tbaa !332
  %50 = call noundef nonnull align 8 dereferenceable(40) ptr @_ZNK6duckdb11TableFilter4CastINS_20ConjunctionAndFilterEEERKT_v(ptr noundef nonnull align 8 dereferenceable(9) %49)
  store ptr %50, ptr %10, align 8, !tbaa !359
  call void @llvm.lifetime.start.p0(i64 8, ptr %11) #3
  %51 = load ptr, ptr %10, align 8, !tbaa !359
  %52 = getelementptr inbounds nuw %"class.duckdb::ConjunctionFilter", ptr %51, i32 0, i32 1
  store ptr %52, ptr %11, align 8, !tbaa !355
  call void @llvm.lifetime.start.p0(i64 8, ptr %12) #3
  %53 = load ptr, ptr %11, align 8, !tbaa !355
  %54 = call ptr @_ZNKSt6vectorIN6duckdb10unique_ptrINS0_11TableFilterESt14default_deleteIS2_ELb1EEESaIS5_EE5beginEv(ptr noundef nonnull align 8 dereferenceable(24) %53) #3
  %55 = getelementptr inbounds nuw %"class.__gnu_cxx::__normal_iterator", ptr %12, i32 0, i32 0
  store ptr %54, ptr %55, align 8
  call void @llvm.lifetime.start.p0(i64 8, ptr %13) #3
  %56 = load ptr, ptr %11, align 8, !tbaa !355
  %57 = call ptr @_ZNKSt6vectorIN6duckdb10unique_ptrINS0_11TableFilterESt14default_deleteIS2_ELb1EEESaIS5_EE3endEv(ptr noundef nonnull align 8 dereferenceable(24) %56) #3
  %58 = getelementptr inbounds nuw %"class.__gnu_cxx::__normal_iterator", ptr %13, i32 0, i32 0
  store ptr %57, ptr %58, align 8
  br label %59

59:                                               ; preds = %72, %48
  %60 = call noundef zeroext i1 @_ZN9__gnu_cxxneIPKN6duckdb10unique_ptrINS1_11TableFilterESt14default_deleteIS3_ELb1EEESt6vectorIS6_SaIS6_EEEEbRKNS_17__normal_iteratorIT_T0_EESH_(ptr noundef nonnull align 8 dereferenceable(8) %12, ptr noundef nonnull align 8 dereferenceable(8) %13) #3
  br i1 %60, label %62, label %61

61:                                               ; preds = %59
  store i32 5, ptr %8, align 4
  br label %74

62:                                               ; preds = %59
  call void @llvm.lifetime.start.p0(i64 8, ptr %14) #3
  %63 = call noundef nonnull align 8 dereferenceable(8) ptr @_ZNK9__gnu_cxx17__normal_iteratorIPKN6duckdb10unique_ptrINS1_11TableFilterESt14default_deleteIS3_ELb1EEESt6vectorIS6_SaIS6_EEEdeEv(ptr noundef nonnull align 8 dereferenceable(8) %12) #3
  store ptr %63, ptr %14, align 8, !tbaa !357
  %64 = load ptr, ptr %14, align 8, !tbaa !357
  %65 = call noundef nonnull align 8 dereferenceable(9) ptr @_ZNK6duckdb10unique_ptrINS_11TableFilterESt14default_deleteIS1_ELb1EEdeEv(ptr noundef nonnull align 8 dereferenceable(8) %64)
  %66 = call noundef zeroext i1 @_ZN6duckdb24DictionarySupportsFilterERKNS_11TableFilterE(ptr noundef nonnull align 8 dereferenceable(9) %65)
  br i1 %66, label %68, label %67

67:                                               ; preds = %62
  store i1 false, ptr %2, align 1
  store i32 1, ptr %8, align 4
  br label %69

68:                                               ; preds = %62
  store i32 0, ptr %8, align 4
  br label %69

69:                                               ; preds = %68, %67
  call void @llvm.lifetime.end.p0(i64 8, ptr %14) #3
  %70 = load i32, ptr %8, align 4
  switch i32 %70, label %74 [
    i32 0, label %71
  ]

71:                                               ; preds = %69
  br label %72

72:                                               ; preds = %71
  %73 = call noundef nonnull align 8 dereferenceable(8) ptr @_ZN9__gnu_cxx17__normal_iteratorIPKN6duckdb10unique_ptrINS1_11TableFilterESt14default_deleteIS3_ELb1EEESt6vectorIS6_SaIS6_EEEppEv(ptr noundef nonnull align 8 dereferenceable(8) %12) #3
  br label %59

74:                                               ; preds = %69, %61
  call void @llvm.lifetime.end.p0(i64 8, ptr %13) #3
  call void @llvm.lifetime.end.p0(i64 8, ptr %12) #3
  call void @llvm.lifetime.end.p0(i64 8, ptr %11) #3
  %75 = load i32, ptr %8, align 4
  switch i32 %75, label %77 [
    i32 5, label %76
  ]

76:                                               ; preds = %74
  store i1 true, ptr %2, align 1
  store i32 1, ptr %8, align 4
  br label %77

77:                                               ; preds = %76, %74
  call void @llvm.lifetime.end.p0(i64 8, ptr %10) #3
  br label %81

78:                                               ; preds = %1, %1
  store i1 true, ptr %2, align 1
  br label %81

79:                                               ; preds = %1, %1, %1, %1
  br label %80

80:                                               ; preds = %1, %79
  store i1 false, ptr %2, align 1
  br label %81

81:                                               ; preds = %80, %78, %77, %47
  %82 = load i1, ptr %2, align 1
  ret i1 %82
}