; Function Attrs: mustprogress uwtable
define noundef zeroext i1 @_ZN6duckdb24DictionarySupportsFilterERKNS_11TableFilterE(ptr noundef nonnull align 8 dereferenceable(9) %0) local_unnamed_addr #4 {
  %2 = getelementptr inbounds nuw i8, ptr %0, i64 8
  %3 = load i8, ptr %2, align 8, !tbaa !365
  switch i8 %3, label %22 [
    i8 3, label %4
    i8 4, label %13
    i8 0, label %.critedge
    i8 2, label %.critedge
  ]

4:                                                ; preds = %1
  %5 = tail call noundef nonnull align 8 dereferenceable(40) ptr @_ZNK6duckdb11TableFilter4CastINS_19ConjunctionOrFilterEEERKT_v(ptr noundef nonnull align 8 dereferenceable(9) %0)
  %6 = getelementptr inbounds nuw i8, ptr %5, i64 16
  %7 = load ptr, ptr %6, align 8, !tbaa !368
  %8 = getelementptr inbounds nuw i8, ptr %5, i64 24
  %9 = load ptr, ptr %8, align 8, !tbaa !368
  %.not3138 = icmp eq ptr %7, %9
  br i1 %.not3138, label %.critedge, label %.lr.ph41

.lr.ph41:                                         ; preds = %4, %.lr.ph41
  %.sroa.028.039 = phi ptr [ %12, %.lr.ph41 ], [ %7, %4 ]
  %10 = tail call noundef nonnull align 8 dereferenceable(9) ptr @_ZNK6duckdb10unique_ptrINS_11TableFilterESt14default_deleteIS1_ELb1EEdeEv(ptr noundef nonnull align 8 dereferenceable(8) %.sroa.028.039)
  %11 = tail call noundef zeroext i1 @_ZN6duckdb24DictionarySupportsFilterERKNS_11TableFilterE(ptr noundef nonnull align 8 dereferenceable(9) %10)
  %12 = getelementptr inbounds nuw i8, ptr %.sroa.028.039, i64 8
  %.not31 = icmp ne ptr %12, %9
  %or.cond.not = select i1 %11, i1 %.not31, i1 false
  br i1 %or.cond.not, label %.lr.ph41, label %.critedge

13:                                               ; preds = %1
  %14 = tail call noundef nonnull align 8 dereferenceable(40) ptr @_ZNK6duckdb11TableFilter4CastINS_20ConjunctionAndFilterEEERKT_v(ptr noundef nonnull align 8 dereferenceable(9) %0)
  %15 = getelementptr inbounds nuw i8, ptr %14, i64 16
  %16 = load ptr, ptr %15, align 8, !tbaa !368
  %17 = getelementptr inbounds nuw i8, ptr %14, i64 24
  %18 = load ptr, ptr %17, align 8, !tbaa !368
  %.not33 = icmp eq ptr %16, %18
  br i1 %.not33, label %.critedge, label %.lr.ph

.lr.ph:                                           ; preds = %13, %.lr.ph
  %.sroa.024.034 = phi ptr [ %21, %.lr.ph ], [ %16, %13 ]
  %19 = tail call noundef nonnull align 8 dereferenceable(9) ptr @_ZNK6duckdb10unique_ptrINS_11TableFilterESt14default_deleteIS1_ELb1EEdeEv(ptr noundef nonnull align 8 dereferenceable(8) %.sroa.024.034)
  %20 = tail call noundef zeroext i1 @_ZN6duckdb24DictionarySupportsFilterERKNS_11TableFilterE(ptr noundef nonnull align 8 dereferenceable(9) %19)
  %21 = getelementptr inbounds nuw i8, ptr %.sroa.024.034, i64 8
  %.not = icmp ne ptr %21, %18
  %or.cond53.not = select i1 %20, i1 %.not, i1 false
  br i1 %or.cond53.not, label %.lr.ph, label %.critedge

22:                                               ; preds = %1
  br label %.critedge

.critedge:                                        ; preds = %.lr.ph, %.lr.ph41, %13, %4, %1, %1, %22
  %.4 = phi i1 [ false, %22 ], [ true, %1 ], [ true, %1 ], [ true, %4 ], [ true, %13 ], [ %11, %.lr.ph41 ], [ %20, %.lr.ph ]
  ret i1 %.4
}